target datalayout = "e-m:e-p270:32:32-p271:32:32-p272:64:64-i64:64-i128:128-f80:128-n8:16:32:64-S128"
target triple = "x86_64-pc-linux-gnu"

%struct.AVFilterContext = type { ptr, ptr, ptr, ptr, ptr, i32, ptr, ptr, i32, ptr, ptr, i32, i32, ptr, ptr, ptr, ptr, i32, ptr, i32, i32 }
%struct.LUT2Context = type { ptr, %struct.FFFrameSync, i32, [4 x ptr], [4 x ptr], [6 x double], [4 x ptr], [4 x i32], [4 x i32], [4 x i32], [4 x i32], [4 x i32], [4 x i32], i32, i32, i32, i32, i32, i32, i32, ptr, ptr }
%struct.FFFrameSync = type { ptr, ptr, i32, %struct.AVRational, i64, ptr, ptr, i32, i32, i8, i8, ptr, i32, i32, i32, i32 }
%struct.AVRational = type { i32, i32 }
%struct.AVFilterFormatsConfig = type { ptr, ptr, ptr, ptr, ptr }
%struct.AVFilterLink = type { ptr, ptr, ptr, ptr, i32, i32, i32, i32, %struct.AVRational, i32, i32, i32, %struct.AVChannelLayout, %struct.AVRational, ptr, i32, %struct.AVFilterFormatsConfig, %struct.AVFilterFormatsConfig }
%struct.AVChannelLayout = type { i32, i32, %union.anon.1, ptr }
%union.anon.1 = type { i64 }
%struct.ThreadData = type { ptr, ptr, ptr }
%struct.AVFrame = type { [8 x ptr], [8 x i32], ptr, i32, i32, i32, i32, i32, %struct.AVRational, i64, i64, %struct.AVRational, i32, ptr, i32, i32, [8 x ptr], ptr, i32, ptr, i32, i32, i32, i32, i32, i32, i32, i64, ptr, i32, ptr, ptr, i64, i64, i64, i64, ptr, %struct.AVChannelLayout, i64 }

; Function Attrs: nounwind uwtable
define internal i32 @tlut2_filter_frame(ptr noundef %0, ptr noundef %1) #0 {
  %3 = alloca i32, align 4
  %4 = alloca ptr, align 8
  %5 = alloca ptr, align 8
  %6 = alloca ptr, align 8
  %7 = alloca ptr, align 8
  %8 = alloca ptr, align 8
  %9 = alloca ptr, align 8
  %10 = alloca %struct.ThreadData, align 8
  %11 = alloca i32, align 4
  store ptr %0, ptr %4, align 8, !tbaa !44
  store ptr %1, ptr %5, align 8, !tbaa !94
  call void @llvm.lifetime.start.p0(i64 8, ptr %6) #12
  %12 = load ptr, ptr %4, align 8, !tbaa !44
  %13 = getelementptr inbounds nuw %struct.AVFilterLink, ptr %12, i32 0, i32 2
  %14 = load ptr, ptr %13, align 8, !tbaa !49
  store ptr %14, ptr %6, align 8, !tbaa !4
  call void @llvm.lifetime.start.p0(i64 8, ptr %7) #12
  %15 = load ptr, ptr %6, align 8, !tbaa !4
  %16 = getelementptr inbounds nuw %struct.AVFilterContext, ptr %15, i32 0, i32 9
  %17 = load ptr, ptr %16, align 8, !tbaa !9
  store ptr %17, ptr %7, align 8, !tbaa !22
  call void @llvm.lifetime.start.p0(i64 8, ptr %8) #12
  %18 = load ptr, ptr %6, align 8, !tbaa !4
  %19 = getelementptr inbounds nuw %struct.AVFilterContext, ptr %18, i32 0, i32 7
  %20 = load ptr, ptr %19, align 8, !tbaa !43
  %21 = getelementptr inbounds ptr, ptr %20, i64 0
  %22 = load ptr, ptr %21, align 8, !tbaa !44
  store ptr %22, ptr %8, align 8, !tbaa !44
  %23 = load ptr, ptr %7, align 8, !tbaa !22
  %24 = getelementptr inbounds nuw %struct.LUT2Context, ptr %23, i32 0, i32 20
  %25 = load ptr, ptr %24, align 8, !tbaa !143
  %26 = icmp ne ptr %25, null
  br i1 %26, label %27, label %103

27:                                               ; preds = %2
  call void @llvm.lifetime.start.p0(i64 8, ptr %9) #12
  %28 = load ptr, ptr %6, align 8, !tbaa !4
  %29 = getelementptr inbounds nuw %struct.AVFilterContext, ptr %28, i32 0, i32 17
  %30 = load i32, ptr %29, align 8, !tbaa !95
  %31 = icmp ne i32 %30, 0
  br i1 %31, label %32, label %35

32:                                               ; preds = %27
  %33 = load ptr, ptr %5, align 8, !tbaa !94
  %34 = call ptr @av_frame_clone(ptr noundef %33)
  store ptr %34, ptr %9, align 8, !tbaa !94
  br label %93

35:                                               ; preds = %27
  call void @llvm.lifetime.start.p0(i64 24, ptr %10) #12
  %36 = load ptr, ptr %8, align 8, !tbaa !44
  %37 = load ptr, ptr %8, align 8, !tbaa !44
  %38 = getelementptr inbounds nuw %struct.AVFilterLink, ptr %37, i32 0, i32 6
  %39 = load i32, ptr %38, align 8, !tbaa !64
  %40 = load ptr, ptr %8, align 8, !tbaa !44
  %41 = getelementptr inbounds nuw %struct.AVFilterLink, ptr %40, i32 0, i32 7
  %42 = load i32, ptr %41, align 4, !tbaa !63
  %43 = call ptr @ff_get_video_buffer(ptr noundef %36, i32 noundef %39, i32 noundef %42)
  store ptr %43, ptr %9, align 8, !tbaa !94
  %44 = load ptr, ptr %9, align 8, !tbaa !94
  %45 = icmp ne ptr %44, null
  br i1 %45, label %52, label %46

46:                                               ; preds = %35
  %47 = load ptr, ptr %7, align 8, !tbaa !22
  %48 = getelementptr inbounds nuw %struct.LUT2Context, ptr %47, i32 0, i32 20
  call void @av_frame_free(ptr noundef %48)
  %49 = load ptr, ptr %5, align 8, !tbaa !94
  %50 = load ptr, ptr %7, align 8, !tbaa !22
  %51 = getelementptr inbounds nuw %struct.LUT2Context, ptr %50, i32 0, i32 20
  store ptr %49, ptr %51, align 8, !tbaa !143
  store i32 -12, ptr %3, align 4
  store i32 1, ptr %11, align 4
  br label %90

52:                                               ; preds = %35
  %53 = load ptr, ptr %9, align 8, !tbaa !94
  %54 = load ptr, ptr %5, align 8, !tbaa !94
  %55 = call i32 @av_frame_copy_props(ptr noundef %53, ptr noundef %54)
  %56 = load ptr, ptr %9, align 8, !tbaa !94
  %57 = getelementptr inbounds nuw %struct.AVFrame, ptr %56, i32 0, i32 19
  %58 = load ptr, ptr %9, align 8, !tbaa !94
  %59 = getelementptr inbounds nuw %struct.AVFrame, ptr %58, i32 0, i32 20
  call void @av_frame_side_data_remove_by_props(ptr noundef %57, ptr noundef %59, i32 noundef 8)
  %60 = load ptr, ptr %9, align 8, !tbaa !94
  %61 = getelementptr inbounds nuw %struct.ThreadData, ptr %10, i32 0, i32 0
  store ptr %60, ptr %61, align 8, !tbaa !96
  %62 = load ptr, ptr %5, align 8, !tbaa !94
  %63 = getelementptr inbounds nuw %struct.ThreadData, ptr %10, i32 0, i32 1
  store ptr %62, ptr %63, align 8, !tbaa !98
  %64 = load ptr, ptr %7, align 8, !tbaa !22
  %65 = getelementptr inbounds nuw %struct.LUT2Context, ptr %64, i32 0, i32 20
  %66 = load ptr, ptr %65, align 8, !tbaa !143
  %67 = getelementptr inbounds nuw %struct.ThreadData, ptr %10, i32 0, i32 2
  store ptr %66, ptr %67, align 8, !tbaa !99
  %68 = load ptr, ptr %6, align 8, !tbaa !4
  %69 = load ptr, ptr %7, align 8, !tbaa !22
  %70 = getelementptr inbounds nuw %struct.LUT2Context, ptr %69, i32 0, i32 21
  %71 = load ptr, ptr %70, align 8, !tbaa !100
  %72 = load ptr, ptr %7, align 8, !tbaa !22
  %73 = getelementptr inbounds nuw %struct.LUT2Context, ptr %72, i32 0, i32 10
  %74 = getelementptr inbounds [4 x i32], ptr %73, i64 0, i64 1
  %75 = load i32, ptr %74, align 4, !tbaa !24
  %76 = load ptr, ptr %6, align 8, !tbaa !4
  %77 = call i32 @ff_filter_get_nb_threads(ptr noundef %76) #14
  %78 = icmp sgt i32 %75, %77
  br i1 %78, label %79, label %82

79:                                               ; preds = %52
  %80 = load ptr, ptr %6, align 8, !tbaa !4
  %81 = call i32 @ff_filter_get_nb_threads(ptr noundef %80) #14
  br label %87

82:                                               ; preds = %52
  %83 = load ptr, ptr %7, align 8, !tbaa !22
  %84 = getelementptr inbounds nuw %struct.LUT2Context, ptr %83, i32 0, i32 10
  %85 = getelementptr inbounds [4 x i32], ptr %84, i64 0, i64 1
  %86 = load i32, ptr %85, align 4, !tbaa !24
  br label %87

87:                                               ; preds = %82, %79
  %88 = phi i32 [ %81, %79 ], [ %86, %82 ]
  %89 = call i32 @ff_filter_execute(ptr noundef %68, ptr noundef %71, ptr noundef %10, ptr noundef null, i32 noundef %88)
  store i32 0, ptr %11, align 4
  br label %90

90:                                               ; preds = %87, %46
  call void @llvm.lifetime.end.p0(i64 24, ptr %10) #12
  %91 = load i32, ptr %11, align 4
  switch i32 %91, label %102 [
    i32 0, label %92
  ]

92:                                               ; preds = %90
  br label %93

93:                                               ; preds = %92, %32
  %94 = load ptr, ptr %7, align 8, !tbaa !22
  %95 = getelementptr inbounds nuw %struct.LUT2Context, ptr %94, i32 0, i32 20
  call void @av_frame_free(ptr noundef %95)
  %96 = load ptr, ptr %5, align 8, !tbaa !94
  %97 = load ptr, ptr %7, align 8, !tbaa !22
  %98 = getelementptr inbounds nuw %struct.LUT2Context, ptr %97, i32 0, i32 20
  store ptr %96, ptr %98, align 8, !tbaa !143
  %99 = load ptr, ptr %8, align 8, !tbaa !44
  %100 = load ptr, ptr %9, align 8, !tbaa !94
  %101 = call i32 @ff_filter_frame(ptr noundef %99, ptr noundef %100)
  store i32 %101, ptr %3, align 4
  store i32 1, ptr %11, align 4
  br label %102

102:                                              ; preds = %93, %90
  call void @llvm.lifetime.end.p0(i64 8, ptr %9) #12
  br label %107

103:                                              ; preds = %2
  %104 = load ptr, ptr %5, align 8, !tbaa !94
  %105 = load ptr, ptr %7, align 8, !tbaa !22
  %106 = getelementptr inbounds nuw %struct.LUT2Context, ptr %105, i32 0, i32 20
  store ptr %104, ptr %106, align 8, !tbaa !143
  store i32 0, ptr %3, align 4
  store i32 1, ptr %11, align 4
  br label %107

107:                                              ; preds = %103, %102
  call void @llvm.lifetime.end.p0(i64 8, ptr %8) #12
  call void @llvm.lifetime.end.p0(i64 8, ptr %7) #12
  call void @llvm.lifetime.end.p0(i64 8, ptr %6) #12
  %108 = load i32, ptr %3, align 4
  ret i32 %108
}