; Function Attrs: nounwind uwtable
define internal i32 @tlut2_filter_frame(ptr noundef readonly captures(none) %0, ptr noundef %1) #0 {
  %3 = alloca %struct.ThreadData, align 8
  %4 = getelementptr inbounds nuw i8, ptr %0, i64 16
  %5 = load ptr, ptr %4, align 8, !tbaa !41
  %6 = getelementptr inbounds nuw i8, ptr %5, i64 72
  %7 = load ptr, ptr %6, align 8, !tbaa !4
  %8 = getelementptr inbounds nuw i8, ptr %5, i64 56
  %9 = load ptr, ptr %8, align 8, !tbaa !35
  %10 = load ptr, ptr %9, align 8, !tbaa !36
  %11 = getelementptr inbounds nuw i8, ptr %7, i64 384
  %12 = load ptr, ptr %11, align 8, !tbaa !128
  %.not = icmp eq ptr %12, null
  br i1 %.not, label %39, label %13

13:                                               ; preds = %2
  %14 = getelementptr inbounds nuw i8, ptr %5, i64 128
  %15 = load i32, ptr %14, align 8, !tbaa !80
  %.not39 = icmp eq i32 %15, 0
  br i1 %.not39, label %18, label %16

16:                                               ; preds = %13
  %17 = tail call ptr @av_frame_clone(ptr noundef %1) #11
  br label %37

18:                                               ; preds = %13
  call void @llvm.lifetime.start.p0(i64 24, ptr nonnull %3) #11
  %19 = getelementptr inbounds nuw i8, ptr %10, i64 40
  %20 = load i32, ptr %19, align 8, !tbaa !55
  %21 = getelementptr inbounds nuw i8, ptr %10, i64 44
  %22 = load i32, ptr %21, align 4, !tbaa !53
  %23 = tail call ptr @ff_get_video_buffer(ptr noundef %10, i32 noundef %20, i32 noundef %22) #11
  %.not40.not = icmp eq ptr %23, null
  br i1 %.not40.not, label %.thread, label %24

.thread:                                          ; preds = %18
  tail call void @av_frame_free(ptr noundef nonnull %11) #11
  store ptr %1, ptr %11, align 8, !tbaa !128
  call void @llvm.lifetime.end.p0(i64 24, ptr nonnull %3) #11
  br label %40

24:                                               ; preds = %18
  %25 = tail call i32 @av_frame_copy_props(ptr noundef nonnull %23, ptr noundef %1) #11
  %26 = getelementptr inbounds nuw i8, ptr %23, i64 264
  %27 = getelementptr inbounds nuw i8, ptr %23, i64 272
  tail call void @av_frame_side_data_remove_by_props(ptr noundef nonnull %26, ptr noundef nonnull %27, i32 noundef 8) #11
  store ptr %23, ptr %3, align 8, !tbaa !81
  %28 = getelementptr inbounds nuw i8, ptr %3, i64 8
  store ptr %1, ptr %28, align 8, !tbaa !83
  %29 = load ptr, ptr %11, align 8, !tbaa !128
  %30 = getelementptr inbounds nuw i8, ptr %3, i64 16
  store ptr %29, ptr %30, align 8, !tbaa !84
  %31 = getelementptr inbounds nuw i8, ptr %7, i64 392
  %32 = load ptr, ptr %31, align 8, !tbaa !85
  %33 = getelementptr inbounds nuw i8, ptr %7, i64 308
  %34 = load i32, ptr %33, align 4, !tbaa !54
  %35 = tail call i32 @ff_filter_get_nb_threads(ptr noundef nonnull %5) #13
  %. = tail call i32 @llvm.smin.i32(i32 %34, i32 %35)
  %36 = call i32 @ff_filter_execute(ptr noundef nonnull %5, ptr noundef %32, ptr noundef nonnull %3, ptr noundef null, i32 noundef %.) #11
  call void @llvm.lifetime.end.p0(i64 24, ptr nonnull %3) #11
  br label %37

37:                                               ; preds = %24, %16
  %.034 = phi ptr [ %17, %16 ], [ %23, %24 ]
  call void @av_frame_free(ptr noundef nonnull %11) #11
  store ptr %1, ptr %11, align 8, !tbaa !128
  %38 = call i32 @ff_filter_frame(ptr noundef %10, ptr noundef %.034) #11
  br label %40

39:                                               ; preds = %2
  store ptr %1, ptr %11, align 8, !tbaa !128
  br label %40

40:                                               ; preds = %.thread, %37, %39
  %.2 = phi i32 [ 0, %39 ], [ %38, %37 ], [ -12, %.thread ]
  ret i32 %.2
}